target datalayout = "e-m:e-p270:32:32-p271:32:32-p272:64:64-i64:64-i128:128-f80:128-n8:16:32:64-S128"
target triple = "x86_64-pc-linux-gnu"

%struct.jit_State = type { %struct.GCtrace, ptr, ptr, ptr, ptr, ptr, ptr, i32, i32, i32, i8, i8, %struct.IRType1, i8, %struct.FoldState, ptr, i32, i32, i32, i32, i32, i32, i32, [1 x i32], [5 x %union.TValue], [3 x %union.TValue], ptr, i32, i32, i32, i32, ptr, ptr, i32, i32, i8, ptr, i32, i32, i16, [101 x i16], [258 x i32], [15 x i32], [16 x ptr], [64 x %struct.HotPenalty], i32, [16 x %struct.BPropEntry], i32, %struct.ScEvEntry, ptr, i32, i32, i32, ptr, i32, i32, ptr, ptr, ptr, i64, i64, %union.TValue, ptr, i32, i32 }
%struct.GCtrace = type { %struct.GCRef, i8, i8, i16, i32, i32, %struct.GCRef, ptr, i32, i32, ptr, ptr, %struct.GCRef, %struct.MRef, i32, i32, ptr, i32, i16, i16, i16, i16, i16, i16, i16, i8, i8, i8, i8 }
%struct.GCRef = type { i64 }
%struct.MRef = type { i64 }
%struct.IRType1 = type { i8 }
%struct.FoldState = type { %union.IRIns, [2 x %union.IRIns], [2 x %union.IRIns] }
%union.IRIns = type { %struct.GCRef }
%struct.HotPenalty = type { %struct.MRef, i16, i16 }
%struct.BPropEntry = type { i16, i16, i32 }
%struct.ScEvEntry = type { %struct.MRef, i16, i16, i16, i16, %struct.IRType1, i8 }
%union.TValue = type { i64 }
%struct.anon.1 = type { i16, i16, i16, i16 }
%struct.lua_State = type { %struct.GCRef, i8, i8, i8, i8, %struct.MRef, %struct.GCRef, ptr, ptr, %struct.MRef, %struct.MRef, %struct.GCRef, %struct.GCRef, ptr, i32 }

; Function Attrs: alwaysinline nounwind uwtable
define internal void @lj_ir_set_(ptr noundef %0, i16 noundef zeroext %1, i16 noundef zeroext %2, i16 noundef zeroext %3) #3 {
  %5 = alloca ptr, align 8
  %6 = alloca i16, align 2
  %7 = alloca i16, align 2
  %8 = alloca i16, align 2
  store ptr %0, ptr %5, align 8, !tbaa !4
  store i16 %1, ptr %6, align 2, !tbaa !13
  store i16 %2, ptr %7, align 2, !tbaa !13
  store i16 %3, ptr %8, align 2, !tbaa !13
  %9 = load i16, ptr %6, align 2, !tbaa !13
  %10 = load ptr, ptr %5, align 8, !tbaa !4
  %11 = getelementptr inbounds nuw %struct.jit_State, ptr %10, i32 0, i32 14
  %12 = getelementptr inbounds nuw %struct.FoldState, ptr %11, i32 0, i32 0
  %13 = getelementptr inbounds nuw %struct.anon.1, ptr %12, i32 0, i32 2
  store i16 %9, ptr %13, align 4, !tbaa !15
  %14 = load i16, ptr %7, align 2, !tbaa !13
  %15 = load ptr, ptr %5, align 8, !tbaa !4
  %16 = getelementptr inbounds nuw %struct.jit_State, ptr %15, i32 0, i32 14
  %17 = getelementptr inbounds nuw %struct.FoldState, ptr %16, i32 0, i32 0
  %18 = getelementptr inbounds nuw %struct.anon.1, ptr %17, i32 0, i32 0
  store i16 %14, ptr %18, align 8, !tbaa !15
  %19 = load i16, ptr %8, align 2, !tbaa !13
  %20 = load ptr, ptr %5, align 8, !tbaa !4
  %21 = getelementptr inbounds nuw %struct.jit_State, ptr %20, i32 0, i32 14
  %22 = getelementptr inbounds nuw %struct.FoldState, ptr %21, i32 0, i32 0
  %23 = getelementptr inbounds nuw %struct.anon.1, ptr %22, i32 0, i32 1
  store i16 %19, ptr %23, align 2, !tbaa !15
  ret void
}

; Function Attrs: alwaysinline nounwind uwtable
define internal i32 @itype2irt(ptr noundef %0) #3 {
  %2 = alloca i32, align 4
  %3 = alloca ptr, align 8
  store ptr %0, ptr %3, align 8, !tbaa !11
  %4 = load ptr, ptr %3, align 8, !tbaa !11
  %5 = load i64, ptr %4, align 8, !tbaa !15
  %6 = ashr i64 %5, 47
  %7 = trunc i64 %6 to i32
  %8 = icmp ult i32 %7, -14
  br i1 %8, label %9, label %10

9:                                                ; preds = %1
  store i32 14, ptr %2, align 4
  br label %16

10:                                               ; preds = %1
  %11 = load ptr, ptr %3, align 8, !tbaa !11
  %12 = load i64, ptr %11, align 8, !tbaa !15
  %13 = ashr i64 %12, 47
  %14 = trunc i64 %13 to i32
  %15 = xor i32 %14, -1
  store i32 %15, ptr %2, align 4
  br label %16

16:                                               ; preds = %10, %9
  %17 = load i32, ptr %2, align 4
  ret i32 %17
}

; Function Attrs: nounwind uwtable
define internal i32 @sload(ptr noundef %0, i32 noundef %1) #0 {
  %3 = alloca ptr, align 8
  %4 = alloca i32, align 4
  %5 = alloca i32, align 4
  %6 = alloca i32, align 4
  store ptr %0, ptr %3, align 8, !tbaa !4
  store i32 %1, ptr %4, align 4, !tbaa !9
  call void @llvm.lifetime.start.p0(i64 4, ptr %5) #9
  %7 = load ptr, ptr %3, align 8, !tbaa !4
  %8 = getelementptr inbounds nuw %struct.jit_State, ptr %7, i32 0, i32 2
  %9 = load ptr, ptr %8, align 8, !tbaa !51
  %10 = getelementptr inbounds nuw %struct.lua_State, ptr %9, i32 0, i32 7
  %11 = load ptr, ptr %10, align 8, !tbaa !52
  %12 = load i32, ptr %4, align 4, !tbaa !9
  %13 = sext i32 %12 to i64
  %14 = getelementptr inbounds %union.TValue, ptr %11, i64 %13
  %15 = call i32 @itype2irt(ptr noundef %14)
  store i32 %15, ptr %5, align 4, !tbaa !9
  call void @llvm.lifetime.start.p0(i64 4, ptr %6) #9
  %16 = load ptr, ptr %3, align 8, !tbaa !4
  %17 = load i32, ptr %5, align 4, !tbaa !9
  %18 = or i32 128, %17
  %19 = or i32 18176, %18
  %20 = trunc i32 %19 to i16
  %21 = load ptr, ptr %3, align 8, !tbaa !4
  %22 = getelementptr inbounds nuw %struct.jit_State, ptr %21, i32 0, i32 9
  %23 = load i32, ptr %22, align 8, !tbaa !43
  %24 = load i32, ptr %4, align 4, !tbaa !9
  %25 = add nsw i32 %23, %24
  %26 = trunc i32 %25 to i16
  call void @lj_ir_set_(ptr noundef %16, i16 noundef zeroext %20, i16 noundef zeroext %26, i16 noundef zeroext 4)
  %27 = load ptr, ptr %3, align 8, !tbaa !4
  %28 = call i32 @lj_ir_emit(ptr noundef %27)
  store i32 %28, ptr %6, align 4, !tbaa !9
  %29 = load i32, ptr %5, align 4, !tbaa !9
  %30 = icmp ule i32 %29, 2
  br i1 %30, label %31, label %37

31:                                               ; preds = %2
  %32 = load i32, ptr %5, align 4, !tbaa !9
  %33 = sub i32 32767, %32
  %34 = load i32, ptr %5, align 4, !tbaa !9
  %35 = shl i32 %34, 24
  %36 = add i32 %33, %35
  store i32 %36, ptr %6, align 4, !tbaa !9
  br label %37

37:                                               ; preds = %31, %2
  %38 = load i32, ptr %6, align 4, !tbaa !9
  %39 = load ptr, ptr %3, align 8, !tbaa !4
  %40 = getelementptr inbounds nuw %struct.jit_State, ptr %39, i32 0, i32 6
  %41 = load ptr, ptr %40, align 8, !tbaa !50
  %42 = load i32, ptr %4, align 4, !tbaa !9
  %43 = sext i32 %42 to i64
  %44 = getelementptr inbounds i32, ptr %41, i64 %43
  store i32 %38, ptr %44, align 4, !tbaa !9
  %45 = load i32, ptr %6, align 4, !tbaa !9
  call void @llvm.lifetime.end.p0(i64 4, ptr %6) #9
  call void @llvm.lifetime.end.p0(i64 4, ptr %5) #9
  ret i32 %45
}