; Function Attrs: nounwind uwtable
define internal fastcc i32 @sload(ptr noundef initializes((184, 190)) %0, i32 noundef %1) unnamed_addr #0 {
  %3 = getelementptr inbounds nuw i8, ptr %0, i64 128
  %4 = load ptr, ptr %3, align 8, !tbaa !44
  %5 = getelementptr inbounds nuw i8, ptr %4, i64 32
  %6 = load ptr, ptr %5, align 8, !tbaa !45
  %7 = sext i32 %1 to i64
  %8 = getelementptr inbounds %union.TValue, ptr %6, i64 %7
  %9 = load i64, ptr %8, align 8, !tbaa !4
  %10 = ashr i64 %9, 47
  %11 = icmp ult i64 %10, -14
  %12 = trunc nsw i64 %10 to i32
  %13 = xor i32 %12, -1
  %.0.i = select i1 %11, i32 14, i32 %13
  %14 = trunc nuw nsw i32 %.0.i to i16
  %15 = or disjoint i16 %14, 18304
  %16 = getelementptr inbounds nuw i8, ptr %0, i64 176
  %17 = load i32, ptr %16, align 8, !tbaa !35
  %18 = add nsw i32 %17, %1
  %19 = trunc i32 %18 to i16
  %20 = getelementptr inbounds nuw i8, ptr %0, i64 184
  %21 = getelementptr inbounds nuw i8, ptr %0, i64 188
  store i16 %15, ptr %21, align 4, !tbaa !4
  store i16 %19, ptr %20, align 8, !tbaa !4
  %22 = getelementptr inbounds nuw i8, ptr %0, i64 186
  store i16 4, ptr %22, align 2, !tbaa !4
  %23 = tail call i32 @lj_ir_emit(ptr noundef %0) #8
  %24 = icmp samesign ult i32 %.0.i, 3
  %25 = mul nuw nsw i32 %.0.i, 16777217
  %26 = xor i32 %25, 32767
  %.0 = select i1 %24, i32 %26, i32 %23
  %27 = getelementptr inbounds nuw i8, ptr %0, i64 160
  %28 = load ptr, ptr %27, align 8, !tbaa !43
  %29 = getelementptr inbounds i32, ptr %28, i64 %7
  store i32 %.0, ptr %29, align 4, !tbaa !37
  ret i32 %.0
}